target datalayout = "e-m:e-p270:32:32-p271:32:32-p272:64:64-i64:64-i128:128-f80:128-n8:16:32:64-S128"
target triple = "x86_64-pc-linux-gnu"

; Function Attrs: nounwind null_pointer_is_valid sspstrong uwtable
define internal i32 @decode_udvm_multitype_operand(ptr noundef %0, i32 noundef %1, ptr noundef %2) #5 {
  %4 = alloca i32, align 4
  %5 = alloca ptr, align 8
  %6 = alloca i32, align 4
  %7 = alloca ptr, align 8
  %8 = alloca i32, align 4
  %9 = alloca i32, align 4
  %10 = alloca i32, align 4
  %11 = alloca i16, align 2
  %12 = alloca i32, align 4
  %13 = alloca i8, align 1
  %14 = alloca i16, align 2
  %15 = alloca i16, align 2
  %16 = alloca i32, align 4
  store ptr %0, ptr %5, align 8
  store i32 %1, ptr %6, align 4
  store ptr %2, ptr %7, align 8
  call void @llvm.lifetime.start.p0(i64 4, ptr %8) #10
  call void @llvm.lifetime.start.p0(i64 4, ptr %9) #10
  call void @llvm.lifetime.start.p0(i64 4, ptr %10) #10
  %17 = load i32, ptr %6, align 4
  store i32 %17, ptr %10, align 4
  call void @llvm.lifetime.start.p0(i64 2, ptr %11) #10
  call void @llvm.lifetime.start.p0(i64 4, ptr %12) #10
  call void @llvm.lifetime.start.p0(i64 1, ptr %13) #10
  call void @llvm.lifetime.start.p0(i64 2, ptr %14) #10
  call void @llvm.lifetime.start.p0(i64 2, ptr %15) #10
  store i16 0, ptr %15, align 2
  %18 = load ptr, ptr %7, align 8
  store i16 0, ptr %18, align 2
  %19 = load i32, ptr %6, align 4
  %20 = icmp uge i32 %19, 65536
  br i1 %20, label %21, label %22

21:                                               ; preds = %3
  store i32 -1, ptr %4, align 4
  store i32 1, ptr %16, align 4
  br label %330

22:                                               ; preds = %3
  %23 = load ptr, ptr %5, align 8
  %24 = load i32, ptr %6, align 4
  %25 = zext i32 %24 to i64
  %26 = getelementptr i8, ptr %23, i64 %25
  %27 = load i8, ptr %26, align 1
  %28 = zext i8 %27 to i32
  store i32 %28, ptr %9, align 4
  %29 = load i32, ptr %9, align 4
  %30 = and i32 %29, 192
  %31 = lshr i32 %30, 6
  store i32 %31, ptr %8, align 4
  %32 = load i32, ptr %8, align 4
  switch i32 %32, label %327 [
    i32 0, label %33
    i32 1, label %44
    i32 2, label %74
    i32 3, label %256
  ]

33:                                               ; preds = %22
  %34 = load ptr, ptr %5, align 8
  %35 = load i32, ptr %6, align 4
  %36 = zext i32 %35 to i64
  %37 = getelementptr i8, ptr %34, i64 %36
  %38 = load i8, ptr %37, align 1
  %39 = zext i8 %38 to i16
  store i16 %39, ptr %11, align 2
  %40 = load i16, ptr %11, align 2
  %41 = load ptr, ptr %7, align 8
  store i16 %40, ptr %41, align 2
  %42 = load i32, ptr %10, align 4
  %43 = add i32 %42, 1
  store i32 %43, ptr %10, align 4
  br label %328

44:                                               ; preds = %22
  %45 = load i32, ptr %9, align 4
  %46 = and i32 %45, 63
  %47 = mul i32 %46, 2
  %48 = trunc i32 %47 to i16
  store i16 %48, ptr %15, align 2
  %49 = load ptr, ptr %5, align 8
  %50 = load i16, ptr %15, align 2
  %51 = zext i16 %50 to i64
  %52 = getelementptr i8, ptr %49, i64 %51
  %53 = load i8, ptr %52, align 1
  %54 = zext i8 %53 to i32
  %55 = shl i32 %54, 8
  %56 = trunc i32 %55 to i16
  store i16 %56, ptr %14, align 2
  %57 = load i16, ptr %14, align 2
  %58 = zext i16 %57 to i32
  %59 = load ptr, ptr %5, align 8
  %60 = load i16, ptr %15, align 2
  %61 = zext i16 %60 to i32
  %62 = add i32 %61, 1
  %63 = and i32 %62, 65535
  %64 = sext i32 %63 to i64
  %65 = getelementptr i8, ptr %59, i64 %64
  %66 = load i8, ptr %65, align 1
  %67 = zext i8 %66 to i32
  %68 = or i32 %58, %67
  %69 = trunc i32 %68 to i16
  store i16 %69, ptr %14, align 2
  %70 = load i16, ptr %14, align 2
  %71 = load ptr, ptr %7, align 8
  store i16 %70, ptr %71, align 2
  %72 = load i32, ptr %10, align 4
  %73 = add i32 %72, 1
  store i32 %73, ptr %10, align 4
  br label %328

74:                                               ; preds = %22
  %75 = load i32, ptr %9, align 4
  %76 = and i32 %75, 224
  %77 = lshr i32 %76, 5
  store i32 %77, ptr %8, align 4
  %78 = load i32, ptr %8, align 4
  %79 = icmp eq i32 %78, 5
  br i1 %79, label %80, label %110

80:                                               ; preds = %74
  %81 = load ptr, ptr %5, align 8
  %82 = load i32, ptr %6, align 4
  %83 = zext i32 %82 to i64
  %84 = getelementptr i8, ptr %81, i64 %83
  %85 = load i8, ptr %84, align 1
  %86 = zext i8 %85 to i32
  %87 = and i32 %86, 31
  %88 = trunc i32 %87 to i8
  store i8 %88, ptr %13, align 1
  %89 = load i8, ptr %13, align 1
  %90 = zext i8 %89 to i32
  %91 = shl i32 %90, 8
  %92 = trunc i32 %91 to i16
  store i16 %92, ptr %11, align 2
  %93 = load ptr, ptr %5, align 8
  %94 = load i32, ptr %6, align 4
  %95 = add i32 %94, 1
  %96 = and i32 %95, 65535
  %97 = zext i32 %96 to i64
  %98 = getelementptr i8, ptr %93, i64 %97
  %99 = load i8, ptr %98, align 1
  store i8 %99, ptr %13, align 1
  %100 = load i16, ptr %11, align 2
  %101 = zext i16 %100 to i32
  %102 = load i8, ptr %13, align 1
  %103 = zext i8 %102 to i32
  %104 = or i32 %101, %103
  %105 = trunc i32 %104 to i16
  store i16 %105, ptr %11, align 2
  %106 = load i16, ptr %11, align 2
  %107 = load ptr, ptr %7, align 8
  store i16 %106, ptr %107, align 2
  %108 = load i32, ptr %10, align 4
  %109 = add i32 %108, 2
  store i32 %109, ptr %10, align 4
  br label %255

110:                                              ; preds = %74
  %111 = load i32, ptr %9, align 4
  %112 = and i32 %111, 240
  %113 = lshr i32 %112, 4
  store i32 %113, ptr %8, align 4
  %114 = load i32, ptr %8, align 4
  %115 = icmp eq i32 %114, 9
  br i1 %115, label %116, label %150

116:                                              ; preds = %110
  %117 = load ptr, ptr %5, align 8
  %118 = load i32, ptr %6, align 4
  %119 = zext i32 %118 to i64
  %120 = getelementptr i8, ptr %117, i64 %119
  %121 = load i8, ptr %120, align 1
  %122 = zext i8 %121 to i32
  %123 = and i32 %122, 15
  %124 = trunc i32 %123 to i8
  store i8 %124, ptr %13, align 1
  %125 = load i8, ptr %13, align 1
  %126 = zext i8 %125 to i32
  %127 = shl i32 %126, 8
  %128 = trunc i32 %127 to i16
  store i16 %128, ptr %11, align 2
  %129 = load ptr, ptr %5, align 8
  %130 = load i32, ptr %6, align 4
  %131 = add i32 %130, 1
  %132 = and i32 %131, 65535
  %133 = zext i32 %132 to i64
  %134 = getelementptr i8, ptr %129, i64 %133
  %135 = load i8, ptr %134, align 1
  store i8 %135, ptr %13, align 1
  %136 = load i16, ptr %11, align 2
  %137 = zext i16 %136 to i32
  %138 = load i8, ptr %13, align 1
  %139 = zext i8 %138 to i32
  %140 = or i32 %137, %139
  %141 = trunc i32 %140 to i16
  store i16 %141, ptr %11, align 2
  %142 = load i16, ptr %11, align 2
  %143 = zext i16 %142 to i32
  %144 = add i32 %143, 61440
  %145 = trunc i32 %144 to i16
  store i16 %145, ptr %11, align 2
  %146 = load i16, ptr %11, align 2
  %147 = load ptr, ptr %7, align 8
  store i16 %146, ptr %147, align 2
  %148 = load i32, ptr %10, align 4
  %149 = add i32 %148, 2
  store i32 %149, ptr %10, align 4
  br label %254

150:                                              ; preds = %110
  %151 = load i32, ptr %9, align 4
  %152 = and i32 %151, 8
  %153 = lshr i32 %152, 3
  store i32 %153, ptr %8, align 4
  %154 = load i32, ptr %8, align 4
  %155 = icmp eq i32 %154, 1
  br i1 %155, label %156, label %173

156:                                              ; preds = %150
  %157 = load ptr, ptr %5, align 8
  %158 = load i32, ptr %6, align 4
  %159 = zext i32 %158 to i64
  %160 = getelementptr i8, ptr %157, i64 %159
  %161 = load i8, ptr %160, align 1
  %162 = zext i8 %161 to i32
  %163 = and i32 %162, 7
  %164 = add i32 %163, 8
  %165 = shl i32 1, %164
  store i32 %165, ptr %12, align 4
  %166 = load i32, ptr %12, align 4
  %167 = and i32 %166, 65535
  %168 = trunc i32 %167 to i16
  store i16 %168, ptr %11, align 2
  %169 = load i16, ptr %11, align 2
  %170 = load ptr, ptr %7, align 8
  store i16 %169, ptr %170, align 2
  %171 = load i32, ptr %10, align 4
  %172 = add i32 %171, 1
  store i32 %172, ptr %10, align 4
  br label %253

173:                                              ; preds = %150
  %174 = load i32, ptr %9, align 4
  %175 = and i32 %174, 14
  %176 = lshr i32 %175, 1
  store i32 %176, ptr %8, align 4
  %177 = load i32, ptr %8, align 4
  %178 = icmp eq i32 %177, 3
  br i1 %178, label %179, label %196

179:                                              ; preds = %173
  %180 = load ptr, ptr %5, align 8
  %181 = load i32, ptr %6, align 4
  %182 = zext i32 %181 to i64
  %183 = getelementptr i8, ptr %180, i64 %182
  %184 = load i8, ptr %183, align 1
  %185 = zext i8 %184 to i32
  %186 = and i32 %185, 1
  %187 = add i32 %186, 6
  %188 = shl i32 1, %187
  store i32 %188, ptr %12, align 4
  %189 = load i32, ptr %12, align 4
  %190 = and i32 %189, 65535
  %191 = trunc i32 %190 to i16
  store i16 %191, ptr %11, align 2
  %192 = load i16, ptr %11, align 2
  %193 = load ptr, ptr %7, align 8
  store i16 %192, ptr %193, align 2
  %194 = load i32, ptr %10, align 4
  %195 = add i32 %194, 1
  store i32 %195, ptr %10, align 4
  br label %252

196:                                              ; preds = %173
  %197 = load i32, ptr %10, align 4
  %198 = add i32 %197, 1
  store i32 %198, ptr %10, align 4
  %199 = load ptr, ptr %5, align 8
  %200 = load i32, ptr %6, align 4
  %201 = add i32 %200, 1
  %202 = and i32 %201, 65535
  %203 = zext i32 %202 to i64
  %204 = getelementptr i8, ptr %199, i64 %203
  %205 = load i8, ptr %204, align 1
  %206 = zext i8 %205 to i32
  %207 = shl i32 %206, 8
  %208 = trunc i32 %207 to i16
  store i16 %208, ptr %14, align 2
  %209 = load i16, ptr %14, align 2
  %210 = zext i16 %209 to i32
  %211 = load ptr, ptr %5, align 8
  %212 = load i32, ptr %6, align 4
  %213 = add i32 %212, 2
  %214 = and i32 %213, 65535
  %215 = zext i32 %214 to i64
  %216 = getelementptr i8, ptr %211, i64 %215
  %217 = load i8, ptr %216, align 1
  %218 = zext i8 %217 to i32
  %219 = or i32 %210, %218
  %220 = trunc i32 %219 to i16
  store i16 %220, ptr %14, align 2
  %221 = load i32, ptr %9, align 4
  %222 = and i32 %221, 1
  %223 = icmp eq i32 %222, 1
  br i1 %223, label %224, label %247

224:                                              ; preds = %196
  %225 = load i16, ptr %14, align 2
  store i16 %225, ptr %15, align 2
  %226 = load ptr, ptr %5, align 8
  %227 = load i16, ptr %15, align 2
  %228 = zext i16 %227 to i64
  %229 = getelementptr i8, ptr %226, i64 %228
  %230 = load i8, ptr %229, align 1
  %231 = zext i8 %230 to i32
  %232 = shl i32 %231, 8
  %233 = trunc i32 %232 to i16
  store i16 %233, ptr %14, align 2
  %234 = load i16, ptr %14, align 2
  %235 = zext i16 %234 to i32
  %236 = load ptr, ptr %5, align 8
  %237 = load i16, ptr %15, align 2
  %238 = zext i16 %237 to i32
  %239 = add i32 %238, 1
  %240 = and i32 %239, 65535
  %241 = sext i32 %240 to i64
  %242 = getelementptr i8, ptr %236, i64 %241
  %243 = load i8, ptr %242, align 1
  %244 = zext i8 %243 to i32
  %245 = or i32 %235, %244
  %246 = trunc i32 %245 to i16
  store i16 %246, ptr %14, align 2
  br label %247

247:                                              ; preds = %224, %196
  %248 = load i16, ptr %14, align 2
  %249 = load ptr, ptr %7, align 8
  store i16 %248, ptr %249, align 2
  %250 = load i32, ptr %10, align 4
  %251 = add i32 %250, 2
  store i32 %251, ptr %10, align 4
  br label %252

252:                                              ; preds = %247, %179
  br label %253

253:                                              ; preds = %252, %156
  br label %254

254:                                              ; preds = %253, %116
  br label %255

255:                                              ; preds = %254, %80
  br label %328

256:                                              ; preds = %22
  %257 = load i32, ptr %9, align 4
  %258 = and i32 %257, 32
  %259 = lshr i32 %258, 5
  store i32 %259, ptr %8, align 4
  %260 = load i32, ptr %8, align 4
  %261 = icmp eq i32 %260, 1
  br i1 %261, label %262, label %276

262:                                              ; preds = %256
  %263 = load ptr, ptr %5, align 8
  %264 = load i32, ptr %6, align 4
  %265 = zext i32 %264 to i64
  %266 = getelementptr i8, ptr %263, i64 %265
  %267 = load i8, ptr %266, align 1
  %268 = zext i8 %267 to i32
  %269 = and i32 %268, 31
  %270 = add i32 %269, 65504
  %271 = trunc i32 %270 to i16
  store i16 %271, ptr %11, align 2
  %272 = load i16, ptr %11, align 2
  %273 = load ptr, ptr %7, align 8
  store i16 %272, ptr %273, align 2
  %274 = load i32, ptr %10, align 4
  %275 = add i32 %274, 1
  store i32 %275, ptr %10, align 4
  br label %326

276:                                              ; preds = %256
  %277 = load ptr, ptr %5, align 8
  %278 = load i32, ptr %6, align 4
  %279 = zext i32 %278 to i64
  %280 = getelementptr i8, ptr %277, i64 %279
  %281 = load i8, ptr %280, align 1
  %282 = zext i8 %281 to i32
  %283 = and i32 %282, 31
  %284 = trunc i32 %283 to i16
  store i16 %284, ptr %15, align 2
  %285 = load i16, ptr %15, align 2
  %286 = zext i16 %285 to i32
  %287 = shl i32 %286, 8
  %288 = trunc i32 %287 to i16
  store i16 %288, ptr %15, align 2
  %289 = load i16, ptr %15, align 2
  %290 = zext i16 %289 to i32
  %291 = load ptr, ptr %5, align 8
  %292 = load i32, ptr %6, align 4
  %293 = add i32 %292, 1
  %294 = and i32 %293, 65535
  %295 = zext i32 %294 to i64
  %296 = getelementptr i8, ptr %291, i64 %295
  %297 = load i8, ptr %296, align 1
  %298 = zext i8 %297 to i32
  %299 = or i32 %290, %298
  %300 = trunc i32 %299 to i16
  store i16 %300, ptr %15, align 2
  %301 = load ptr, ptr %5, align 8
  %302 = load i16, ptr %15, align 2
  %303 = zext i16 %302 to i64
  %304 = getelementptr i8, ptr %301, i64 %303
  %305 = load i8, ptr %304, align 1
  %306 = zext i8 %305 to i32
  %307 = shl i32 %306, 8
  %308 = trunc i32 %307 to i16
  store i16 %308, ptr %14, align 2
  %309 = load i16, ptr %14, align 2
  %310 = zext i16 %309 to i32
  %311 = load ptr, ptr %5, align 8
  %312 = load i16, ptr %15, align 2
  %313 = zext i16 %312 to i32
  %314 = add i32 %313, 1
  %315 = and i32 %314, 65535
  %316 = sext i32 %315 to i64
  %317 = getelementptr i8, ptr %311, i64 %316
  %318 = load i8, ptr %317, align 1
  %319 = zext i8 %318 to i32
  %320 = or i32 %310, %319
  %321 = trunc i32 %320 to i16
  store i16 %321, ptr %14, align 2
  %322 = load i16, ptr %14, align 2
  %323 = load ptr, ptr %7, align 8
  store i16 %322, ptr %323, align 2
  %324 = load i32, ptr %10, align 4
  %325 = add i32 %324, 2
  store i32 %325, ptr %10, align 4
  br label %326

326:                                              ; preds = %276, %262
  br label %327

327:                                              ; preds = %22, %326
  br label %328

328:                                              ; preds = %327, %255, %44, %33
  %329 = load i32, ptr %10, align 4
  store i32 %329, ptr %4, align 4
  store i32 1, ptr %16, align 4
  br label %330

330:                                              ; preds = %328, %21
  call void @llvm.lifetime.end.p0(i64 2, ptr %15) #10
  call void @llvm.lifetime.end.p0(i64 2, ptr %14) #10
  call void @llvm.lifetime.end.p0(i64 1, ptr %13) #10
  call void @llvm.lifetime.end.p0(i64 4, ptr %12) #10
  call void @llvm.lifetime.end.p0(i64 2, ptr %11) #10
  call void @llvm.lifetime.end.p0(i64 4, ptr %10) #10
  call void @llvm.lifetime.end.p0(i64 4, ptr %9) #10
  call void @llvm.lifetime.end.p0(i64 4, ptr %8) #10
  %331 = load i32, ptr %4, align 4
  ret i32 %331
}