; Function Attrs: mustprogress nofree norecurse nosync nounwind null_pointer_is_valid sspstrong willreturn memory(argmem: readwrite) uwtable
define internal fastcc range(i32 -1, 65539) i32 @decode_udvm_multitype_operand(ptr noundef readonly captures(none) %0, i32 noundef %1, ptr noundef writeonly captures(none) initializes((0, 2)) %2) unnamed_addr #4 {
  store i16 0, ptr %2, align 2
  %4 = icmp ugt i32 %1, 65535
  br i1 %4, label %127, label %5

5:                                                ; preds = %3
  %6 = zext nneg i32 %1 to i64
  %7 = getelementptr i8, ptr %0, i64 %6
  %8 = load i8, ptr %7, align 1
  %9 = zext i8 %8 to i32
  %10 = lshr i32 %9, 6
  switch i32 %10, label %default.unreachable106 [
    i32 0, label %11
    i32 1, label %14
    i32 2, label %29
    i32 3, label %102
  ]

11:                                               ; preds = %5
  %12 = zext i8 %8 to i16
  store i16 %12, ptr %2, align 2
  %13 = add nuw nsw i32 %1, 1
  br label %127

14:                                               ; preds = %5
  %.tr = zext i8 %8 to i16
  %15 = shl nuw nsw i16 %.tr, 1
  %16 = and i16 %15, 126
  %17 = zext nneg i16 %16 to i64
  %18 = getelementptr i8, ptr %0, i64 %17
  %19 = load i8, ptr %18, align 1
  %20 = zext i8 %19 to i16
  %21 = shl nuw i16 %20, 8
  %22 = or disjoint i16 %16, 1
  %23 = zext nneg i16 %22 to i64
  %24 = getelementptr i8, ptr %0, i64 %23
  %25 = load i8, ptr %24, align 1
  %26 = zext i8 %25 to i16
  %27 = or disjoint i16 %21, %26
  store i16 %27, ptr %2, align 2
  %28 = add nuw nsw i32 %1, 1
  br label %127

29:                                               ; preds = %5
  %.mask = and i32 %9, 224
  %30 = icmp eq i32 %.mask, 160
  br i1 %30, label %31, label %43

31:                                               ; preds = %29
  %32 = and i8 %8, 31
  %33 = zext nneg i8 %32 to i16
  %34 = shl nuw nsw i16 %33, 8
  %35 = add nuw nsw i32 %1, 1
  %36 = and i32 %35, 65535
  %37 = zext nneg i32 %36 to i64
  %38 = getelementptr i8, ptr %0, i64 %37
  %39 = load i8, ptr %38, align 1
  %40 = zext i8 %39 to i16
  %41 = or disjoint i16 %34, %40
  store i16 %41, ptr %2, align 2
  %42 = add nuw nsw i32 %1, 2
  br label %127

43:                                               ; preds = %29
  %.mask103 = and i32 %9, 240
  %44 = icmp eq i32 %.mask103, 144
  br i1 %44, label %45, label %57

45:                                               ; preds = %43
  %46 = zext i8 %8 to i16
  %47 = shl nuw i16 %46, 8
  %48 = add nuw nsw i32 %1, 1
  %49 = and i32 %48, 65535
  %50 = zext nneg i32 %49 to i64
  %51 = getelementptr i8, ptr %0, i64 %50
  %52 = load i8, ptr %51, align 1
  %53 = zext i8 %52 to i16
  %54 = or disjoint i16 %47, %53
  %55 = or i16 %54, -4096
  store i16 %55, ptr %2, align 2
  %56 = add nuw nsw i32 %1, 2
  br label %127

57:                                               ; preds = %43
  %58 = and i32 %9, 8
  %.not104 = icmp eq i32 %58, 0
  br i1 %.not104, label %64, label %59

59:                                               ; preds = %57
  %60 = and i32 %9, 15
  %61 = shl nuw nsw i32 1, %60
  %62 = trunc nuw i32 %61 to i16
  store i16 %62, ptr %2, align 2
  %63 = add nuw nsw i32 %1, 1
  br label %127

64:                                               ; preds = %57
  %65 = and i32 %9, 6
  %66 = icmp eq i32 %65, 6
  br i1 %66, label %67, label %72

67:                                               ; preds = %64
  %68 = and i32 %9, 7
  %69 = shl nuw nsw i32 1, %68
  %70 = trunc nuw nsw i32 %69 to i16
  store i16 %70, ptr %2, align 2
  %71 = add nuw nsw i32 %1, 1
  br label %127

72:                                               ; preds = %64
  %73 = add nuw nsw i32 %1, 1
  %74 = and i32 %73, 65535
  %75 = zext nneg i32 %74 to i64
  %76 = getelementptr i8, ptr %0, i64 %75
  %77 = load i8, ptr %76, align 1
  %78 = zext i8 %77 to i16
  %79 = shl nuw i16 %78, 8
  %80 = add nuw nsw i32 %1, 2
  %81 = and i32 %80, 65535
  %82 = zext nneg i32 %81 to i64
  %83 = getelementptr i8, ptr %0, i64 %82
  %84 = load i8, ptr %83, align 1
  %85 = zext i8 %84 to i16
  %86 = or disjoint i16 %79, %85
  %87 = and i32 %9, 1
  %.not105 = icmp eq i32 %87, 0
  br i1 %.not105, label %100, label %88

88:                                               ; preds = %72
  %89 = zext i16 %86 to i64
  %90 = getelementptr i8, ptr %0, i64 %89
  %91 = load i8, ptr %90, align 1
  %92 = zext i8 %91 to i16
  %93 = shl nuw i16 %92, 8
  %94 = add i16 %86, 1
  %95 = zext i16 %94 to i64
  %96 = getelementptr i8, ptr %0, i64 %95
  %97 = load i8, ptr %96, align 1
  %98 = zext i8 %97 to i16
  %99 = or disjoint i16 %93, %98
  br label %100

100:                                              ; preds = %88, %72
  %.0 = phi i16 [ %99, %88 ], [ %86, %72 ]
  store i16 %.0, ptr %2, align 2
  %101 = add nuw nsw i32 %1, 3
  br label %127

102:                                              ; preds = %5
  %103 = and i32 %9, 32
  %.not = icmp eq i32 %103, 0
  %104 = add nuw nsw i32 %1, 1
  br i1 %.not, label %108, label %105

105:                                              ; preds = %102
  %106 = zext i8 %8 to i16
  %107 = or i16 %106, -32
  store i16 %107, ptr %2, align 2
  br label %127

108:                                              ; preds = %102
  %109 = and i8 %8, 31
  %110 = zext nneg i8 %109 to i64
  %111 = shl nuw nsw i64 %110, 8
  %112 = and i32 %104, 65535
  %113 = zext nneg i32 %112 to i64
  %114 = getelementptr i8, ptr %0, i64 %113
  %115 = load i8, ptr %114, align 1
  %116 = zext i8 %115 to i64
  %117 = or disjoint i64 %111, %116
  %118 = getelementptr i8, ptr %0, i64 %117
  %119 = load i8, ptr %118, align 1
  %120 = zext i8 %119 to i16
  %121 = shl nuw i16 %120, 8
  %122 = getelementptr i8, ptr %118, i64 1
  %123 = load i8, ptr %122, align 1
  %124 = zext i8 %123 to i16
  %125 = or disjoint i16 %121, %124
  store i16 %125, ptr %2, align 2
  %126 = add nuw nsw i32 %1, 2
  br label %127

default.unreachable106:                           ; preds = %5
  unreachable

127:                                              ; preds = %11, %14, %45, %67, %100, %59, %31, %105, %108, %3
  %.0101 = phi i32 [ -1, %3 ], [ %104, %105 ], [ %126, %108 ], [ %42, %31 ], [ %56, %45 ], [ %63, %59 ], [ %71, %67 ], [ %101, %100 ], [ %28, %14 ], [ %13, %11 ]
  ret i32 %.0101
}